(lp0
(S'arduino_lib_version'
p1
ccopy_reg
_reconstructor
p2
(cino.environment
Version
p3
c__builtin__
tuple
p4
(I1
I0
I5
tp5
tp6
Rp7
tp8
a(S'build_dir'
p9
S'.build/uno'
p10
tp11
a(S'version.txt'
p12
S'/usr/share/arduino/lib/version.txt'
p13
tp14
a.